; Function Attrs: mustprogress ssp uwtable
define hidden noundef zeroext i1 @_ZN6open3d13visualization4glsl17VoxelGridRenderer6RenderERKNS0_12RenderOptionERKNS0_11ViewControlE(ptr noundef nonnull align 8 dereferenceable(224) %0, ptr noundef nonnull align 8 dereferenceable(497) %1, ptr noundef nonnull align 16 dereferenceable(728) %2) unnamed_addr #1 align 2 {
  %4 = getelementptr inbounds nuw i8, ptr %0, i64 24
  %5 = load i8, ptr %4, align 8, !tbaa !25, !range !31, !noundef !32
  %6 = trunc nuw i8 %5 to i1
  br i1 %6, label %7, label %20

7:                                                ; preds = %3
  %8 = getelementptr inbounds nuw i8, ptr %0, i64 8
  %9 = load ptr, ptr %8, align 8, !tbaa !33
  %10 = load ptr, ptr %9, align 8, !tbaa !4
  %11 = getelementptr inbounds nuw i8, ptr %10, i64 24
  %12 = load ptr, ptr %11, align 8
  %13 = tail call noundef zeroext i1 %12(ptr noundef nonnull align 8 dereferenceable(48) %9)
  br i1 %13, label %20, label %.sink.split

.sink.split:                                      ; preds = %7
  %14 = getelementptr inbounds nuw i8, ptr %1, i64 449
  %15 = load i8, ptr %14, align 1, !tbaa !65, !range !31, !noundef !32
  %16 = trunc nuw i8 %15 to i1
  %17 = load ptr, ptr %8, align 8, !tbaa !33
  %. = select i1 %16, i64 32, i64 128
  %18 = getelementptr inbounds nuw i8, ptr %0, i64 %.
  %19 = tail call noundef zeroext i1 @_ZN6open3d13visualization4glsl13ShaderWrapper6RenderERKNS_8geometry8GeometryERKNS0_12RenderOptionERKNS0_11ViewControlE(ptr noundef nonnull align 8 dereferenceable(72) %18, ptr noundef nonnull align 8 dereferenceable(48) %17, ptr noundef nonnull align 8 dereferenceable(497) %1, ptr noundef nonnull align 16 dereferenceable(728) %2)
  br label %20

20:                                               ; preds = %.sink.split, %3, %7
  %.0 = phi i1 [ true, %7 ], [ true, %3 ], [ %19, %.sink.split ]
  ret i1 %.0
}